; Function Attrs: nofree norecurse nosync nounwind memory(none) uwtable
define nonnull ptr @lv_animimg_get_anim(ptr noundef readnone captures(address_is_null, ret: address, provenance) %0) local_unnamed_addr #3 {
  %.not = icmp eq ptr %0, null
  br i1 %.not, label %.preheader, label %2

.preheader:                                       ; preds = %1, %.preheader
  br label %.preheader

2:                                                ; preds = %1
  %3 = getelementptr inbounds nuw i8, ptr %0, i64 120
  ret ptr %3
}